; Function Attrs: mustprogress nofree norecurse nosync nounwind willreturn memory(readwrite, inaccessiblemem: none) uwtable
define internal void @_ZN5faiss12_GLOBAL__N_111hnsw_searchINS_29RangeSearchBlockResultHandlerINS_4CMaxIflEELb0EEEEEvPKNS_9IndexHNSWElPKfRT_PKNS_16SearchParametersE.omp_outlined.omp.reduction.reduction_func(ptr noundef readonly captures(none) %0, ptr noundef readonly captures(none) %1) #17 {
  %3 = load ptr, ptr %1, align 8
  %4 = load ptr, ptr %0, align 8
  %5 = getelementptr inbounds nuw i8, ptr %1, i64 8
  %6 = load ptr, ptr %5, align 8
  %7 = getelementptr inbounds nuw i8, ptr %0, i64 8
  %8 = load ptr, ptr %7, align 8
  %9 = getelementptr inbounds nuw i8, ptr %1, i64 16
  %10 = load ptr, ptr %9, align 8
  %11 = getelementptr inbounds nuw i8, ptr %0, i64 16
  %12 = load ptr, ptr %11, align 8
  %13 = getelementptr inbounds nuw i8, ptr %1, i64 24
  %14 = load ptr, ptr %13, align 8
  %15 = getelementptr inbounds nuw i8, ptr %0, i64 24
  %16 = load ptr, ptr %15, align 8
  %17 = load i64, ptr %4, align 8, !tbaa !50
  %18 = load i64, ptr %3, align 8, !tbaa !50
  %19 = add i64 %18, %17
  store i64 %19, ptr %4, align 8, !tbaa !50
  %20 = load i64, ptr %8, align 8, !tbaa !50
  %21 = load i64, ptr %6, align 8, !tbaa !50
  %22 = add i64 %21, %20
  store i64 %22, ptr %8, align 8, !tbaa !50
  %23 = load i64, ptr %12, align 8, !tbaa !50
  %24 = load i64, ptr %10, align 8, !tbaa !50
  %25 = add i64 %24, %23
  store i64 %25, ptr %12, align 8, !tbaa !50
  %26 = load i64, ptr %16, align 8, !tbaa !50
  %27 = load i64, ptr %14, align 8, !tbaa !50
  %28 = add i64 %27, %26
  store i64 %28, ptr %16, align 8, !tbaa !50
  ret void
}